; Function Attrs: mustprogress nounwind uwtable
define hidden void @_ZN15ClassLoaderData10classes_doEPFvP5KlassE(ptr noundef nonnull align 8 dereferenceable(160) %0, ptr nocapture noundef readonly %1) local_unnamed_addr #0 align 2 {
  %3 = getelementptr inbounds i8, ptr %0, i64 56
  %4 = load volatile ptr, ptr %3, align 8
  tail call void asm sideeffect "", "~{memory},~{dirflag},~{fpsr},~{flags}"() #16, !srcloc !10
  %.not5 = icmp eq ptr %4, null
  br i1 %.not5, label %._crit_edge, label %.lr.ph

.lr.ph:                                           ; preds = %2, %.lr.ph
  %.06 = phi ptr [ %6, %.lr.ph ], [ %4, %2 ]
  tail call void %1(ptr noundef nonnull %.06) #16
  %5 = getelementptr inbounds i8, ptr %.06, i64 144
  %6 = load ptr, ptr %5, align 8
  %.not = icmp eq ptr %6, null
  br i1 %.not, label %._crit_edge, label %.lr.ph, !llvm.loop !20

._crit_edge:                                      ; preds = %.lr.ph, %2
  ret void
}